target datalayout = "e-m:e-p270:32:32-p271:32:32-p272:64:64-i64:64-i128:128-f80:128-n8:16:32:64-S128"
target triple = "x86_64-pc-linux-gnu"

%class.stringStream = type <{ %class.outputStream, ptr, i64, i64, i8, [48 x i8], [7 x i8] }>
%class.outputStream = type { ptr, i32, i8, i32, i64, %class.TimeStamp, ptr, i64 }
%class.TimeStamp = type { i64 }

@.str.33 = private unnamed_addr constant [8 x i8] c":%lu-%s\00", align 1

; Function Attrs: mustprogress nounwind uwtable
define linkonce_odr hidden void @_ZN12outputStream9print_rawEPKc(ptr noundef nonnull align 8 dereferenceable(56) %0, ptr noundef %1) #1 comdat align 2 {
  %3 = alloca ptr, align 8
  %4 = alloca ptr, align 8
  store ptr %0, ptr %3, align 8
  store ptr %1, ptr %4, align 8
  %5 = load ptr, ptr %3, align 8
  %6 = load ptr, ptr %4, align 8
  %7 = load ptr, ptr %4, align 8
  %8 = call i64 @strlen(ptr noundef %7) #9
  call void @_ZN12outputStream9print_rawEPKcm(ptr noundef nonnull align 8 dereferenceable(56) %5, ptr noundef %6, i64 noundef %8)
  ret void
}

; Function Attrs: mustprogress nounwind uwtable
define internal void @_ZL20print_thread_detailsmPKcP12outputStream(i64 noundef %0, ptr noundef %1, ptr noundef %2) #1 {
  %4 = alloca i64, align 8
  %5 = alloca ptr, align 8
  %6 = alloca ptr, align 8
  %7 = alloca [64 x i8], align 16
  %8 = alloca %class.stringStream, align 8
  %9 = alloca i32, align 4
  store i64 %0, ptr %4, align 8
  store ptr %1, ptr %5, align 8
  store ptr %2, ptr %6, align 8
  %10 = getelementptr inbounds [64 x i8], ptr %7, i64 0, i64 0
  call void @_ZN12stringStreamC1EPcm(ptr noundef nonnull align 8 dereferenceable(129) %8, ptr noundef %10, i64 noundef 64)
  %11 = load i64, ptr %4, align 8
  %12 = load ptr, ptr %5, align 8
  call void (ptr, ptr, ...) @_ZN12outputStream5printEPKcz(ptr noundef nonnull align 8 dereferenceable(56) %8, ptr noundef @.str.33, i64 noundef %11, ptr noundef %12)
  store i32 0, ptr %9, align 4
  br label %13

13:                                               ; preds = %33, %3
  %14 = load i32, ptr %9, align 4
  %15 = sext i32 %14 to i64
  %16 = getelementptr inbounds [64 x i8], ptr %7, i64 0, i64 %15
  %17 = load i8, ptr %16, align 1
  %18 = sext i8 %17 to i32
  %19 = icmp ne i32 %18, 0
  br i1 %19, label %20, label %36

20:                                               ; preds = %13
  %21 = load i32, ptr %9, align 4
  %22 = sext i32 %21 to i64
  %23 = getelementptr inbounds [64 x i8], ptr %7, i64 0, i64 %22
  %24 = load i8, ptr %23, align 1
  %25 = sext i8 %24 to i32
  %26 = call i32 @isalnum(i32 noundef %25) #9
  %27 = icmp ne i32 %26, 0
  br i1 %27, label %32, label %28

28:                                               ; preds = %20
  %29 = load i32, ptr %9, align 4
  %30 = sext i32 %29 to i64
  %31 = getelementptr inbounds [64 x i8], ptr %7, i64 0, i64 %30
  store i8 45, ptr %31, align 1
  br label %32

32:                                               ; preds = %28, %20
  br label %33

33:                                               ; preds = %32
  %34 = load i32, ptr %9, align 4
  %35 = add nsw i32 %34, 1
  store i32 %35, ptr %9, align 4
  br label %13, !llvm.loop !10

36:                                               ; preds = %13
  %37 = load ptr, ptr %6, align 8
  %38 = getelementptr inbounds [64 x i8], ptr %7, i64 0, i64 0
  call void @_ZN12outputStream9print_rawEPKc(ptr noundef nonnull align 8 dereferenceable(56) %37, ptr noundef %38)
  call void @_ZN12stringStreamD1Ev(ptr noundef nonnull align 8 dereferenceable(129) %8) #8
  ret void
}