; Function Attrs: mustprogress nounwind uwtable
define internal fastcc void @_ZL20print_thread_detailsmPKcP12outputStream(i64 noundef %0, ptr noundef %1, ptr noundef %2) unnamed_addr #1 {
  %4 = alloca [64 x i8], align 16
  %5 = alloca %class.stringStream, align 8
  call void @_ZN12stringStreamC1EPcm(ptr noundef nonnull align 8 dereferenceable(129) %5, ptr noundef nonnull %4, i64 noundef 64) #13
  call void (ptr, ptr, ...) @_ZN12outputStream5printEPKcz(ptr noundef nonnull align 8 dereferenceable(56) %5, ptr noundef nonnull @.str.33, i64 noundef %0, ptr noundef %1) #13
  %6 = load i8, ptr %4, align 16
  %.not8 = icmp eq i8 %6, 0
  br i1 %.not8, label %._crit_edge, label %.lr.ph

.lr.ph:                                           ; preds = %3, %12
  %indvars.iv = phi i64 [ %indvars.iv.next, %12 ], [ 0, %3 ]
  %7 = phi i8 [ %14, %12 ], [ %6, %3 ]
  %8 = phi ptr [ %13, %12 ], [ %4, %3 ]
  %9 = sext i8 %7 to i32
  %10 = call i32 @isalnum(i32 noundef %9) #14
  %.not7 = icmp eq i32 %10, 0
  br i1 %.not7, label %11, label %12

11:                                               ; preds = %.lr.ph
  store i8 45, ptr %8, align 1
  br label %12

12:                                               ; preds = %.lr.ph, %11
  %indvars.iv.next = add nuw nsw i64 %indvars.iv, 1
  %13 = getelementptr inbounds [64 x i8], ptr %4, i64 0, i64 %indvars.iv.next
  %14 = load i8, ptr %13, align 1
  %.not = icmp eq i8 %14, 0
  br i1 %.not, label %._crit_edge, label %.lr.ph, !llvm.loop !13

._crit_edge:                                      ; preds = %12, %3
  %15 = call i64 @strlen(ptr noundef nonnull dereferenceable(1) %4) #14
  call void @_ZN12outputStream9print_rawEPKcm(ptr noundef nonnull align 8 dereferenceable(56) %2, ptr noundef nonnull %4, i64 noundef %15) #13
  call void @_ZN12stringStreamD1Ev(ptr noundef nonnull align 8 dereferenceable(129) %5) #13
  ret void
}